target datalayout = "e-m:e-p270:32:32-p271:32:32-p272:64:64-i64:64-i128:128-f80:128-n8:16:32:64-S128"
target triple = "x86_64-pc-linux-gnu"

%struct.archive_write = type { %struct.archive, i32, i64, i64, ptr, i64, ptr, ptr, ptr, ptr, ptr, i32, i32, ptr, ptr, ptr, ptr, ptr, ptr, ptr, ptr, ptr, ptr, ptr, ptr, ptr, ptr }
%struct.archive = type { i32, i32, ptr, i32, ptr, i32, i32, ptr, %struct.archive_string, ptr, i32, i32, ptr, ptr, i64, i64, i64, i8, i64 }
%struct.archive_string = type { ptr, i64, i64 }
%struct._7zip = type { i32, i64, ptr, i64, i64, i64, i64, i64, [3 x i64], i64, i64, i64, i32, i32, i32, i32, i32, i32, %struct.la_zstream, %struct.coder, ptr, [61440 x i8], i64, %struct.anon, %struct.anon, %struct.archive_rb_tree }
%struct.la_zstream = type { ptr, i64, i64, ptr, i64, i64, i32, ptr, i32, ptr, ptr, ptr }
%struct.coder = type { i32, i64, ptr }
%struct.anon = type { ptr, ptr }
%struct.archive_rb_tree = type { ptr, ptr }
%struct.ppmd_stream = type { i32, %struct.CPpmd7, %struct.CPpmd7z_RangeEnc, %struct.IByteOut, ptr, ptr, ptr, i64 }
%struct.CPpmd7 = type { ptr, ptr, ptr, i32, i32, i32, i32, i32, i32, i32, i32, i32, ptr, ptr, ptr, ptr, ptr, i32, [38 x i8], [128 x i8], [38 x i32], [256 x i8], [256 x i8], [256 x i8], %struct.CPpmd_See, [25 x [16 x %struct.CPpmd_See]], [128 x [64 x i16]] }
%struct.CPpmd_See = type { i16, i8, i8 }
%struct.CPpmd7z_RangeEnc = type { i64, i32, i8, i64, ptr }
%struct.IByteOut = type { ptr, ptr }

; Function Attrs: nounwind uwtable
define internal void @ppmd_write(ptr noundef %0, i8 noundef zeroext %1) #0 {
  %3 = alloca ptr, align 8
  %4 = alloca i8, align 1
  %5 = alloca ptr, align 8
  %6 = alloca ptr, align 8
  %7 = alloca ptr, align 8
  %8 = alloca ptr, align 8
  store ptr %0, ptr %3, align 8
  store i8 %1, ptr %4, align 1
  %9 = load ptr, ptr %3, align 8
  %10 = getelementptr inbounds %struct.IByteOut, ptr %9, i32 0, i32 0
  %11 = load ptr, ptr %10, align 8
  store ptr %11, ptr %5, align 8
  %12 = load ptr, ptr %5, align 8
  %13 = getelementptr inbounds %struct.archive_write, ptr %12, i32 0, i32 15
  %14 = load ptr, ptr %13, align 8
  store ptr %14, ptr %6, align 8
  %15 = load ptr, ptr %6, align 8
  %16 = getelementptr inbounds %struct._7zip, ptr %15, i32 0, i32 18
  store ptr %16, ptr %7, align 8
  %17 = load ptr, ptr %7, align 8
  %18 = getelementptr inbounds %struct.la_zstream, ptr %17, i32 0, i32 4
  %19 = load i64, ptr %18, align 8
  %20 = icmp ne i64 %19, 0
  br i1 %20, label %21, label %35

21:                                               ; preds = %2
  %22 = load i8, ptr %4, align 1
  %23 = load ptr, ptr %7, align 8
  %24 = getelementptr inbounds %struct.la_zstream, ptr %23, i32 0, i32 3
  %25 = load ptr, ptr %24, align 8
  %26 = getelementptr inbounds i8, ptr %25, i32 1
  store ptr %26, ptr %24, align 8
  store i8 %22, ptr %25, align 1
  %27 = load ptr, ptr %7, align 8
  %28 = getelementptr inbounds %struct.la_zstream, ptr %27, i32 0, i32 4
  %29 = load i64, ptr %28, align 8
  %30 = add i64 %29, -1
  store i64 %30, ptr %28, align 8
  %31 = load ptr, ptr %7, align 8
  %32 = getelementptr inbounds %struct.la_zstream, ptr %31, i32 0, i32 5
  %33 = load i64, ptr %32, align 8
  %34 = add i64 %33, 1
  store i64 %34, ptr %32, align 8
  br label %56

35:                                               ; preds = %2
  %36 = load ptr, ptr %7, align 8
  %37 = getelementptr inbounds %struct.la_zstream, ptr %36, i32 0, i32 9
  %38 = load ptr, ptr %37, align 8
  store ptr %38, ptr %8, align 8
  %39 = load ptr, ptr %8, align 8
  %40 = getelementptr inbounds %struct.ppmd_stream, ptr %39, i32 0, i32 5
  %41 = load ptr, ptr %40, align 8
  %42 = load ptr, ptr %8, align 8
  %43 = getelementptr inbounds %struct.ppmd_stream, ptr %42, i32 0, i32 6
  %44 = load ptr, ptr %43, align 8
  %45 = icmp ult ptr %41, %44
  br i1 %45, label %46, label %56

46:                                               ; preds = %35
  %47 = load i8, ptr %4, align 1
  %48 = load ptr, ptr %8, align 8
  %49 = getelementptr inbounds %struct.ppmd_stream, ptr %48, i32 0, i32 5
  %50 = load ptr, ptr %49, align 8
  %51 = getelementptr inbounds i8, ptr %50, i32 1
  store ptr %51, ptr %49, align 8
  store i8 %47, ptr %50, align 1
  %52 = load ptr, ptr %8, align 8
  %53 = getelementptr inbounds %struct.ppmd_stream, ptr %52, i32 0, i32 7
  %54 = load i64, ptr %53, align 8
  %55 = add i64 %54, 1
  store i64 %55, ptr %53, align 8
  br label %56

56:                                               ; preds = %46, %35, %21
  ret void
}