; Function Attrs: mustprogress nofree norecurse nosync nounwind willreturn memory(readwrite, inaccessiblemem: none) uwtable
define internal void @ppmd_write(ptr noundef readonly captures(none) %0, i8 noundef zeroext %1) #12 {
  %3 = load ptr, ptr %0, align 8
  %4 = getelementptr inbounds nuw i8, ptr %3, i64 248
  %5 = load ptr, ptr %4, align 8
  %6 = getelementptr inbounds nuw i8, ptr %5, i64 168
  %7 = load i64, ptr %6, align 8
  %.not = icmp eq i64 %7, 0
  br i1 %.not, label %17, label %8

8:                                                ; preds = %2
  %9 = getelementptr inbounds nuw i8, ptr %5, i64 160
  %10 = load ptr, ptr %9, align 8
  %11 = getelementptr inbounds nuw i8, ptr %10, i64 1
  store ptr %11, ptr %9, align 8
  store i8 %1, ptr %10, align 1
  %12 = load i64, ptr %6, align 8
  %13 = add i64 %12, -1
  store i64 %13, ptr %6, align 8
  %14 = getelementptr inbounds nuw i8, ptr %5, i64 176
  %15 = load i64, ptr %14, align 8
  %16 = add i64 %15, 1
  store i64 %16, ptr %14, align 8
  br label %30

17:                                               ; preds = %2
  %18 = getelementptr inbounds nuw i8, ptr %5, i64 208
  %19 = load ptr, ptr %18, align 8
  %20 = getelementptr inbounds nuw i8, ptr %19, i64 19248
  %21 = load ptr, ptr %20, align 8
  %22 = getelementptr inbounds nuw i8, ptr %19, i64 19256
  %23 = load ptr, ptr %22, align 8
  %24 = icmp ult ptr %21, %23
  br i1 %24, label %25, label %30

25:                                               ; preds = %17
  %26 = getelementptr inbounds nuw i8, ptr %21, i64 1
  store ptr %26, ptr %20, align 8
  store i8 %1, ptr %21, align 1
  %27 = getelementptr inbounds nuw i8, ptr %19, i64 19264
  %28 = load i64, ptr %27, align 8
  %29 = add i64 %28, 1
  store i64 %29, ptr %27, align 8
  br label %30

30:                                               ; preds = %25, %17, %8
  ret void
}